((lp0
(I3
I405
tp1
a(I580
I288
tp2
a(I940
I245
tp3
a(I269
I282
tp4
a(I1059
I513
tp5
a(I842
I266
tp6
a(lp7
(I42
I312
tp8
a(I209
I135
tp9
a(I417
I1
tp10
a(I83
I83
tp11
a(I246
I437
tp12
a(I335
I84
tp13
atp14
.