(dp0
S'colorMin'
p1
cnumpy.core.multiarray
_reconstruct
p2
(cnumpy
ndarray
p3
(I0
tp4
S'b'
p5
tp6
Rp7
(I1
(L3L
tp8
cnumpy
dtype
p9
(S'i4'
p10
I0
I1
tp11
Rp12
(I3
S'<'
p13
NNNI-1
I-1
I0
tp14
bI00
S'\x00\x00\x00\x00Q\x00\x00\x00?\x00\x00\x00'
p15
tp16
bsS'Hmax'
p17
I147
sS'Hmin'
p18
I93
sS'colorMax'
p19
g2
(g3
(I0
tp20
g5
tp21
Rp22
(I1
(L3L
tp23
g12
I00
S'\x12\x00\x00\x00q\x00\x00\x00y\x00\x00\x00'
p24
tp25
bsS'Wmax'
p26
I124
sS'Wmin'
p27
I58
s.