((lp0
(I298
I293
tp1
a(I716
I342
tp2
a(I1089
I300
tp3
a(I186
I447
tp4
a(I813
I365
tp5
a(I1083
I617
tp6
a(I980
I325
tp7
a(lp8
(I0
I2
tp9
a(I209
I137
tp10
a(I417
I0
tp11
a(I41
I313
tp12
a(I247
I189
tp13
a(I246
I437
tp14
a(I334
I83
tp15
atp16
.