(dp0
S'colorMin'
p1
cnumpy.core.multiarray
_reconstruct
p2
(cnumpy
ndarray
p3
(I0
tp4
S'b'
p5
tp6
Rp7
(I1
(L3L
tp8
cnumpy
dtype
p9
(S'i4'
p10
I0
I1
tp11
Rp12
(I3
S'<'
p13
NNNI-1
I-1
I0
tp14
bI00
S'\x13\x00\x00\x00\xd7\x00\x00\x00\xa0\x00\x00\x00'
p15
tp16
bsS'colorMax'
p17
g2
(g3
(I0
tp18
g5
tp19
Rp20
(I1
(L3L
tp21
g12
I00
S'\x1f\x00\x00\x00\xff\x00\x00\x00\xff\x00\x00\x00'
p22
tp23
bsS'matchMax'
p24
I101
s.